
Discarded input sections

 .text          0x0000000000000000        0x0 main.o
 .data          0x0000000000000000        0x0 main.o
 .bss           0x0000000000000000        0x0 main.o
 .text.mystrlen
                0x0000000000000000       0x14 main.o
 .comment       0x0000000000000000       0x12 main.o
 .ARM.attributes
                0x0000000000000000       0x31 main.o
 .data          0x0000000000000000        0x0 crt0.o
 .bss           0x0000000000000000        0x0 crt0.o
 .ARM.attributes
                0x0000000000000000       0x21 crt0.o

Memory Configuration

Name             Origin             Length             Attributes
*default*        0x0000000000000000 0xffffffffffffffff

Linker script and memory map

                0x0000000000000094                . = (0x0 + SIZEOF_HEADERS)

.text           0x0000000000000098      0x1f2
 *(.text)
 .text          0x0000000000000098        0x8 crt0.o
                0x0000000000000098                _start
 *(.text.*)
 .text.main     0x00000000000000a0      0x1bc main.o
                0x00000000000000a0                main
 .text._exit    0x000000000000025c        0x4 crt0.o
                0x000000000000025c                _exit
 .text.open     0x0000000000000260        0x6 crt0.o
                0x0000000000000260                open
 .text.close    0x0000000000000266        0x6 crt0.o
                0x0000000000000266                close
 .text.seek     0x000000000000026c        0x6 crt0.o
                0x000000000000026c                seek
 .text.system   0x0000000000000272        0x6 crt0.o
                0x0000000000000272                system
 .text.write    0x0000000000000278        0x6 crt0.o
                0x0000000000000278                write
 .text.read     0x000000000000027e        0x6 crt0.o
                0x000000000000027e                read
 .text.usleep   0x0000000000000284        0x6 crt0.o
                0x0000000000000284                usleep
 *(.gnu.linkonce.t.*)

.glue_7         0x000000000000028c        0x0
 .glue_7        0x0000000000000000        0x0 linker stubs

.glue_7t        0x000000000000028c        0x0
 .glue_7t       0x0000000000000000        0x0 linker stubs

.vfp11_veneer   0x000000000000028c        0x0
 .vfp11_veneer  0x0000000000000000        0x0 linker stubs

.v4_bx          0x000000000000028c        0x0
 .v4_bx         0x0000000000000000        0x0 linker stubs

.plt            0x000000000000028c        0x0
 .plt           0x0000000000000000        0x0 main.o

.rel.dyn        0x000000000000028c        0x0
 .rel.plt       0x0000000000000000        0x0 main.o

.rel.data
 *(.rel.data .rel.data.* .rel.gnu.linkonce.d.*)

.rel.got        0x000000000000028c        0x0
 *(.rel.got)
 .rel.got       0x0000000000000000        0x0 main.o
                0x0000000010000000                . = 0x10000000

.got            0x0000000010000000        0xc
 *(.got.plt)
 .got.plt       0x0000000010000000        0xc main.o
                0x0000000010000000                _GLOBAL_OFFSET_TABLE_
 *(.igot.plt)
 *(.got)
 .got           0x0000000000000000        0x0 main.o
 *(.igot)

.dynamic        0x000000001000000c       0x28
 *(.dynamic)
 .dynamic       0x000000001000000c       0x28 main.o
                0x000000001000000c                _DYNAMIC

.rodata         0x0000000010000038       0xd8
 *(.rodata)
 .rodata        0x0000000010000038       0x84 main.o
 *(.rodata.*)
 .rodata.str1.4
                0x00000000100000bc       0x54 main.o
 *(.gnu.linkonce.r.*)

.gnu.version_d  0x0000000010000110        0x0
 .gnu.version_d
                0x0000000000000000        0x0 main.o

.gnu.version    0x0000000010000110        0x0
 .gnu.version   0x0000000000000000        0x0 main.o

.gnu.version_r  0x0000000010000110        0x0
 .gnu.version_r
                0x0000000000000000        0x0 main.o

.data
 *(.data)
 *(.data.*)
 *(.gnu.linkonce.d.*)

.bss
 *(.bss)
 *(.bss.*)
 *(.gnu.linkonce.b.*)
 *(COMMON)

.dynbss         0x0000000010000110        0x0
 .dynbss        0x0000000000000000        0x0 main.o

/DISCARD/
 *(.interp)
 *(.dynsym)
 *(.dynstr)
 *(.hash)
 *(.comment)
 *(.ARM.attributes)
LOAD main.o
LOAD crt0.o
START GROUP
LOAD /opt/arm-miosix-eabi/lib/gcc/arm-eabi/4.5.2/../../../../arm-eabi/lib/thumb/thumb2/libstdc++.a
LOAD /opt/arm-miosix-eabi/lib/gcc/arm-eabi/4.5.2/../../../../arm-eabi/lib/thumb/thumb2/libc.a
LOAD /opt/arm-miosix-eabi/lib/gcc/arm-eabi/4.5.2/../../../../arm-eabi/lib/thumb/thumb2/libm.a
LOAD /opt/arm-miosix-eabi/lib/gcc/arm-eabi/4.5.2/thumb/thumb2/libgcc.a
END GROUP
OUTPUT(main.elf elf32-littlearm)
