
testsuite_file.elf:     file format elf32-littlearm
testsuite_file.elf
architecture: arm, flags 0x00000050:
HAS_SYMS, DYNAMIC
start address 0x00000099

Program Header:
    LOAD off    0x00000098 vaddr 0x00000098 paddr 0x00000098 align 2**3
         filesz 0x00000076 memsz 0x00000076 flags r-x
    LOAD off    0x00000110 vaddr 0x10000000 paddr 0x10000000 align 2**3
         filesz 0x00000050 memsz 0x00000050 flags rw-
 DYNAMIC off    0x0000011c vaddr 0x1000000c paddr 0x1000000c align 2**2
         filesz 0x00000028 memsz 0x00000028 flags rw-

Dynamic Section:
  DEBUG                0x00000000
private flags = 5000002: [Version5 EABI] [has entry point]

Sections:
Idx Name          Size      VMA       LMA       File off  Algn
  0 .text         00000076  00000098  00000098  00000098  2**3
                  CONTENTS, ALLOC, LOAD, READONLY, CODE
  1 .got          0000000c  10000000  10000000  00000110  2**2
                  CONTENTS, ALLOC, LOAD, DATA
  2 .dynamic      00000028  1000000c  1000000c  0000011c  2**2
                  CONTENTS, ALLOC, LOAD, DATA
  3 .rodata       00000018  10000038  10000038  00000148  2**3
                  CONTENTS, ALLOC, LOAD, READONLY, DATA
SYMBOL TABLE:
00000098 l    d  .text	00000000 .text
10000000 l    d  .got	00000000 .got
1000000c l    d  .dynamic	00000000 .dynamic
10000038 l    d  .rodata	00000000 .rodata
00000000 l    df *ABS*	00000000 main.c
1000000c l     O *ABS*	00000000 _DYNAMIC
10000000 l     O *ABS*	00000000 _GLOBAL_OFFSET_TABLE_
00000108 g     F .text	00000000 write
00000098 g     F .text	00000000 _start
000000a0 g     F .text	00000058 main
000000f8 g     F .text	00000000 _exit
000000fc g     F .text	00000000 open
00000102 g     F .text	00000000 close


Contents of section .text:
 0098 00f002f8 00f02cf8 f8b5134f 002409eb  ......,....O.$..
 00a8 070313f8 015f0134 002dfad1 0f4840f2  ....._.4.-...H@.
 00b8 02414844 2a4600f0 1df8b0f1 ff3f0646  .AHD*F.......?.F
 00c8 0bd009eb 07012246 00f01af8 a04206d0  ......"F.....B..
 00d8 304600f0 12f80220 f8bd0120 fce73046  0F..... ... ..0F
 00e8 00f00bf8 2846f7e7 38000000 3c000000  ....(F..8...<...
 00f8 022300df 062300df 70470723 00df7047  .#...#..pG.#..pG
 0108 032300df 7047                        .#..pG          
Contents of section .got:
 10000000 0c000010 00000000 00000000           ............    
Contents of section .dynamic:
 1000000c 15000000 00000000 00000000 00000000  ................
 1000001c 00000000 00000000 00000000 00000000  ................
 1000002c 00000000 00000000                    ........        
Contents of section .rodata:
 10000038 61736400 74657374 73756974 655f6669  asd.testsuite_fi
 10000048 6c652e62 696e0000                    le.bin..        

Disassembly of section .text:

00000098 <_start>:
_start():
  98:	f000 f802 	bl	a0 <main>
  9c:	f000 f82c 	bl	f8 <_exit>

000000a0 <main>:
main():
  a0:	b5f8      	push	{r3, r4, r5, r6, r7, lr}
  a2:	4f13      	ldr	r7, [pc, #76]	; (f0 <main+0x50>)
  a4:	2400      	movs	r4, #0
  a6:	eb09 0307 	add.w	r3, r9, r7
  aa:	f813 5f01 	ldrb.w	r5, [r3, #1]!
  ae:	3401      	adds	r4, #1
  b0:	2d00      	cmp	r5, #0
  b2:	d1fa      	bne.n	aa <main+0xa>
  b4:	480f      	ldr	r0, [pc, #60]	; (f4 <main+0x54>)
  b6:	f240 4102 	movw	r1, #1026	; 0x402
  ba:	4448      	add	r0, r9
  bc:	462a      	mov	r2, r5
  be:	f000 f81d 	bl	fc <open>
  c2:	f1b0 3fff 	cmp.w	r0, #4294967295	; 0xffffffff
  c6:	4606      	mov	r6, r0
  c8:	d00b      	beq.n	e2 <main+0x42>
  ca:	eb09 0107 	add.w	r1, r9, r7
  ce:	4622      	mov	r2, r4
  d0:	f000 f81a 	bl	108 <write>
  d4:	42a0      	cmp	r0, r4
  d6:	d006      	beq.n	e6 <main+0x46>
  d8:	4630      	mov	r0, r6
  da:	f000 f812 	bl	102 <close>
  de:	2002      	movs	r0, #2
  e0:	bdf8      	pop	{r3, r4, r5, r6, r7, pc}
  e2:	2001      	movs	r0, #1
  e4:	e7fc      	b.n	e0 <main+0x40>
  e6:	4630      	mov	r0, r6
  e8:	f000 f80b 	bl	102 <close>
  ec:	4628      	mov	r0, r5
  ee:	e7f7      	b.n	e0 <main+0x40>
  f0:	00000038 	andeq	r0, r0, r8, lsr r0
  f4:	0000003c 	andeq	r0, r0, ip, lsr r0

000000f8 <_exit>:
_exit():
  f8:	2302      	movs	r3, #2
  fa:	df00      	svc	0

000000fc <open>:
open():
  fc:	2306      	movs	r3, #6
  fe:	df00      	svc	0
 100:	4770      	bx	lr

00000102 <close>:
close():
 102:	2307      	movs	r3, #7
 104:	df00      	svc	0
 106:	4770      	bx	lr

00000108 <write>:
write():
 108:	2303      	movs	r3, #3
 10a:	df00      	svc	0
 10c:	4770      	bx	lr

Disassembly of section .got:

10000000 <.got>:
10000000:	1000000c 	andne	r0, r0, ip
	...

Disassembly of section .dynamic:

1000000c <.dynamic>:
1000000c:	00000015 	andeq	r0, r0, r5, lsl r0
	...

Disassembly of section .rodata:

10000038 <.rodata>:
10000038:	00647361 	rsbeq	r7, r4, r1, ror #6
1000003c:	74736574 	ldrbtvc	r6, [r3], #-1396	; 0x574
10000040:	74697573 	strbtvc	r7, [r9], #-1395	; 0x573
10000044:	69665f65 	stmdbvs	r6!, {r0, r2, r5, r6, r8, r9, sl, fp, ip, lr}^
10000048:	622e656c 	eorvs	r6, lr, #452984832	; 0x1b000000
1000004c:	00006e69 	andeq	r6, r0, r9, ror #28
